target datalayout = "e-m:e-p270:32:32-p271:32:32-p272:64:64-i64:64-i128:128-f80:128-n8:16:32:64-S128"
target triple = "x86_64-pc-linux-gnu"

%struct.z_stream_s = type { ptr, i32, i64, ptr, i32, i64, ptr, ptr, ptr, ptr, ptr, i32, i64, i64 }

@.str.3 = private unnamed_addr constant [7 x i8] c"1.2.11\00", align 1
@.str.4 = private unnamed_addr constant [84 x i8] c"zlib returned Z_VERSION_ERROR: compile time and runtime zlib implementations differ\00", align 1
@.str.5 = private unnamed_addr constant [37 x i8] c"inflateInit2 returned Z_STREAM_ERROR\00", align 1
@.str.6 = private unnamed_addr constant [40 x i8] c"unknown error initializing zlib library\00", align 1

; Function Attrs: nounwind uwtable
define i64 @Java_java_util_zip_Inflater_init(ptr noundef %0, ptr noundef %1, i8 noundef zeroext %2) #0 {
  %4 = alloca i64, align 8
  %5 = alloca ptr, align 8
  %6 = alloca ptr, align 8
  %7 = alloca i8, align 1
  %8 = alloca ptr, align 8
  %9 = alloca ptr, align 8
  %10 = alloca i32, align 4
  store ptr %0, ptr %5, align 8
  store ptr %1, ptr %6, align 8
  store i8 %2, ptr %7, align 1
  %11 = call noalias ptr @calloc(i64 noundef 1, i64 noundef 112) #4
  store ptr %11, ptr %8, align 8
  %12 = load ptr, ptr %8, align 8
  %13 = icmp eq ptr %12, null
  br i1 %13, label %14, label %16

14:                                               ; preds = %3
  %15 = load ptr, ptr %5, align 8
  call void @JNU_ThrowOutOfMemoryError(ptr noundef %15, ptr noundef null)
  store i64 0, ptr %4, align 8
  br label %54

16:                                               ; preds = %3
  %17 = load ptr, ptr %8, align 8
  %18 = load i8, ptr %7, align 1
  %19 = zext i8 %18 to i32
  %20 = icmp ne i32 %19, 0
  %21 = select i1 %20, i32 -15, i32 15
  %22 = call i32 @inflateInit2_(ptr noundef %17, i32 noundef %21, ptr noundef @.str.3, i32 noundef 112)
  store i32 %22, ptr %10, align 4
  %23 = load i32, ptr %10, align 4
  switch i32 %23, label %30 [
    i32 0, label %24
    i32 -4, label %27
  ]

24:                                               ; preds = %16
  %25 = load ptr, ptr %8, align 8
  %26 = ptrtoint ptr %25 to i64
  store i64 %26, ptr %4, align 8
  br label %54

27:                                               ; preds = %16
  %28 = load ptr, ptr %8, align 8
  call void @free(ptr noundef %28) #5
  %29 = load ptr, ptr %5, align 8
  call void @JNU_ThrowOutOfMemoryError(ptr noundef %29, ptr noundef null)
  store i64 0, ptr %4, align 8
  br label %54

30:                                               ; preds = %16
  %31 = load ptr, ptr %8, align 8
  %32 = getelementptr inbounds %struct.z_stream_s, ptr %31, i32 0, i32 6
  %33 = load ptr, ptr %32, align 8
  %34 = icmp ne ptr %33, null
  br i1 %34, label %35, label %39

35:                                               ; preds = %30
  %36 = load ptr, ptr %8, align 8
  %37 = getelementptr inbounds %struct.z_stream_s, ptr %36, i32 0, i32 6
  %38 = load ptr, ptr %37, align 8
  br label %49

39:                                               ; preds = %30
  %40 = load i32, ptr %10, align 4
  %41 = icmp eq i32 %40, -6
  br i1 %41, label %42, label %43

42:                                               ; preds = %39
  br label %47

43:                                               ; preds = %39
  %44 = load i32, ptr %10, align 4
  %45 = icmp eq i32 %44, -2
  %46 = select i1 %45, ptr @.str.5, ptr @.str.6
  br label %47

47:                                               ; preds = %43, %42
  %48 = phi ptr [ @.str.4, %42 ], [ %46, %43 ]
  br label %49

49:                                               ; preds = %47, %35
  %50 = phi ptr [ %38, %35 ], [ %48, %47 ]
  store ptr %50, ptr %9, align 8
  %51 = load ptr, ptr %8, align 8
  call void @free(ptr noundef %51) #5
  %52 = load ptr, ptr %5, align 8
  %53 = load ptr, ptr %9, align 8
  call void @JNU_ThrowInternalError(ptr noundef %52, ptr noundef %53)
  store i64 0, ptr %4, align 8
  br label %54

54:                                               ; preds = %49, %27, %24, %14
  %55 = load i64, ptr %4, align 8
  ret i64 %55
}