; Function Attrs: nounwind uwtable
define noundef i64 @Java_java_util_zip_Inflater_init(ptr noundef %0, ptr nocapture noundef readnone %1, i8 noundef zeroext %2) local_unnamed_addr #0 {
  %4 = tail call noalias dereferenceable_or_null(112) ptr @calloc(i64 noundef 1, i64 noundef 112) #6
  %5 = icmp eq ptr %4, null
  br i1 %5, label %6, label %7

6:                                                ; preds = %3
  tail call void @JNU_ThrowOutOfMemoryError(ptr noundef %0, ptr noundef null) #5
  br label %21

7:                                                ; preds = %3
  %.not = icmp eq i8 %2, 0
  %8 = select i1 %.not, i32 15, i32 -15
  %9 = tail call i32 @inflateInit2_(ptr noundef nonnull %4, i32 noundef %8, ptr noundef nonnull @.str.3, i32 noundef 112) #5
  switch i32 %9, label %13 [
    i32 0, label %10
    i32 -4, label %12
  ]

10:                                               ; preds = %7
  %11 = ptrtoint ptr %4 to i64
  br label %21

12:                                               ; preds = %7
  tail call void @free(ptr noundef nonnull %4) #5
  tail call void @JNU_ThrowOutOfMemoryError(ptr noundef %0, ptr noundef null) #5
  br label %21

13:                                               ; preds = %7
  %14 = getelementptr inbounds i8, ptr %4, i64 48
  %15 = load ptr, ptr %14, align 8
  %.not17 = icmp eq ptr %15, null
  %16 = icmp eq i32 %9, -6
  %17 = icmp eq i32 %9, -2
  %18 = select i1 %17, ptr @.str.5, ptr @.str.6
  %19 = select i1 %16, ptr @.str.4, ptr %18
  %20 = select i1 %.not17, ptr %19, ptr %15
  tail call void @free(ptr noundef nonnull %4) #5
  tail call void @JNU_ThrowInternalError(ptr noundef %0, ptr noundef nonnull %20) #5
  br label %21

21:                                               ; preds = %13, %12, %10, %6
  %.0 = phi i64 [ 0, %6 ], [ 0, %13 ], [ 0, %12 ], [ %11, %10 ]
  ret i64 %.0
}